(dp0
S'rt'
p1
(dp2
sS'fullscr'
p3
I01
sS'stim_log'
p4
(dp5
sS'conds'
p6
S'/Users/jennygilbert/Documents/bevel_task/test_onset_files/conds'
p7
sS'simulated_response'
p8
I00
sS'SS'
p9
(dp10
sS'completed'
p11
I0
sS'quit_key'
p12
S'q'
p13
sS'stim_onset_time'
p14
(dp15
sS'response'
p16
(dp17
sS'onset'
p18
S'/Users/jennygilbert/Documents/bevel_task/test_onset_files/onsets'
p19
sS'is_this_SS_trial'
p20
(dp21
sS'score'
p22
(dp23
sS'broke_on_trial'
p24
(dp25
sS'datestamp'
p26
S'2018-03-13-10_37_29'
p27
sS'participant'
p28
ccopy_reg
_reconstructor
p29
(cfuture.types.newstr
newstr
p30
c__builtin__
unicode
p31
Vtest
p32
tp33
Rp34
sS'computer'
p35
S'jennygilbert'
p36
sS'cwd'
p37
S'/Users/jennygilbert/Documents/bevel_task'
p38
sS'expt_title'
p39
S'sidepiece_prob'
p40
sS'trialdata'
p41
(dp42
I0
(dp43
g18
F29.0
ssI1
(dp44
g18
F35.0
ssI2
(dp45
g18
F41.0
ssI3
(dp46
g18
F47.0
ssI4
(dp47
g18
F51.0
ssI5
(dp48
g18
F56.0
ssI6
(dp49
g18
F62.0
ssI7
(dp50
g18
F67.0
ssI8
(dp51
g18
F73.0
ssI9
(dp52
g18
F78.0
ssI10
(dp53
g18
F83.0
ssI11
(dp54
g18
F87.0
ssI12
(dp55
g18
F91.0
ssI13
(dp56
g18
F96.0
ssI14
(dp57
g18
F102.0
ssI15
(dp58
g18
F108.0
ssI16
(dp59
g18
F114.0
ssI17
(dp60
g18
F118.0
ssI18
(dp61
g18
F124.0
ssI19
(dp62
g18
F127.0
ssI20
(dp63
g18
F131.0
ssI21
(dp64
g18
F135.0
ssI22
(dp65
g18
F141.0
ssI23
(dp66
g18
F145.0
ssI24
(dp67
g18
F150.0
ssI25
(dp68
g18
F154.0
ssI26
(dp69
g18
F158.0
ssI27
(dp70
g18
F164.0
ssI28
(dp71
g18
F168.0
ssI29
(dp72
g18
F173.0
ssI30
(dp73
g18
F177.0
ssI31
(dp74
g18
F183.0
ssI32
(dp75
g18
F189.0
ssI33
(dp76
g18
F193.0
ssI34
(dp77
g18
F199.0
ssI35
(dp78
g18
F203.0
ssI36
(dp79
g18
F208.0
ssI37
(dp80
g18
F213.0
ssI38
(dp81
g18
F219.0
ssI39
(dp82
g18
F224.0
ssI40
(dp83
g18
F230.0
ssI41
(dp84
g18
F236.0
ssI42
(dp85
g18
F242.0
ssI43
(dp86
g18
F248.0
ssI44
(dp87
g18
F254.0
ssI45
(dp88
g18
F250.0
ssI46
(dp89
g18
F255.0
ssI47
(dp90
g18
F261.0
sss.